target datalayout = "e-m:e-p270:32:32-p271:32:32-p272:64:64-i64:64-i128:128-f80:128-n8:16:32:64-S128"
target triple = "x86_64-pc-linux-gnu"

%"class.llvm::StringRef" = type { ptr, i64 }
%"class.std::optional" = type { %"struct.std::_Optional_base" }
%"struct.std::_Optional_base" = type { %"struct.std::_Optional_payload" }
%"struct.std::_Optional_payload" = type { %"struct.std::_Optional_payload_base.base", [3 x i8] }
%"struct.std::_Optional_payload_base.base" = type <{ %"union.std::_Optional_payload_base<unsigned int>::_Storage", i8 }>
%"union.std::_Optional_payload_base<unsigned int>::_Storage" = type { i32 }
%"struct.clang::TransferrableTargetInfo.base" = type <{ i8, i8, i8, i8, i8, i8, i8, i8, i8, i8, i8, i8, i8, i8, i8, i8, i8, i8, i8, i8, i8, i8, i8, i8, i8, [3 x i8], %"class.std::optional", i8, i8, i8, i8, i8, i8, i8, i8, i8, i8, i8, i8, i8, i8, i8, i8, i8, i8, i16, i16, [2 x i8], i32, i32, [4 x i8], ptr, ptr, ptr, ptr, ptr, ptr, ptr, i32, i32, i32, i32, i32, i32, i32, i32, i32, i32, i32, i32, i8, [3 x i8], i32, i32 }>
%"class.llvm::RefCountedBase" = type { i32 }
%"class.std::shared_ptr" = type { %"class.std::__shared_ptr" }
%"class.std::__shared_ptr" = type { ptr, %"class.std::__shared_count" }
%"class.std::__shared_count" = type { ptr }
%"class.llvm::Triple" = type { %"class.std::__cxx11::basic_string", i32, i32, i32, i32, i32, i32 }
%"class.clang::TargetCXXABI" = type { i32 }
%"class.llvm::VersionTuple" = type { i64, i64 }
%"class.std::optional.0" = type { %"struct.std::_Optional_base.1" }
%"struct.std::_Optional_base.1" = type { %"struct.std::_Optional_payload.3" }
%"struct.std::_Optional_payload.3" = type { %"struct.std::_Optional_payload.base.7", [7 x i8] }
%"struct.std::_Optional_payload.base.7" = type { %"struct.std::_Optional_payload_base.base.6" }
%"struct.std::_Optional_payload_base.base.6" = type <{ %"union.std::_Optional_payload_base<llvm::Triple>::_Storage", i8 }>
%"union.std::_Optional_payload_base<llvm::Triple>::_Storage" = type { %"class.llvm::Triple" }
%"class.llvm::StringSet" = type { %"class.llvm::StringMap" }
%"class.llvm::StringMap" = type { %"class.llvm::StringMapImpl" }
%"class.llvm::StringMapImpl" = type { ptr, i32, i32, i32, i32 }
%"class.std::__cxx11::basic_string" = type { %"struct.std::__cxx11::basic_string<char>::_Alloc_hider", i64, %union.anon }
%"struct.std::__cxx11::basic_string<char>::_Alloc_hider" = type { ptr }
%union.anon = type { i64, [8 x i8] }
%"struct.clang::TransferrableTargetInfo" = type <{ i8, i8, i8, i8, i8, i8, i8, i8, i8, i8, i8, i8, i8, i8, i8, i8, i8, i8, i8, i8, i8, i8, i8, i8, i8, [3 x i8], %"class.std::optional", i8, i8, i8, i8, i8, i8, i8, i8, i8, i8, i8, i8, i8, i8, i8, i8, i8, i8, i16, i16, [2 x i8], i32, i32, [4 x i8], ptr, ptr, ptr, ptr, ptr, ptr, ptr, i32, i32, i32, i32, i32, i32, i32, i32, i32, i32, i32, i32, i8, [3 x i8], i32, i32, [4 x i8] }>
%"class.clang::TargetInfo" = type <{ ptr, %"struct.clang::TransferrableTargetInfo.base", %"class.llvm::RefCountedBase", %"class.std::shared_ptr", %"class.llvm::Triple", i8, i8, i8, i8, i8, i8, i8, i8, i8, i8, i8, i8, i8, i8, i8, i8, %"class.std::__cxx11::basic_string", ptr, ptr, i8, i8, [2 x i8], %"class.clang::TargetCXXABI", ptr, %"class.llvm::StringRef", %"class.llvm::VersionTuple", i32, i32, %"class.std::optional", %"class.std::optional.0", %"class.llvm::StringSet", i8, [7 x i8] }>

; Function Attrs: mustprogress nounwind uwtable
define linkonce_odr hidden void @_ZN5clang12TargetCXXABI3setENS0_4KindE(ptr noundef nonnull align 4 dereferenceable(4) %0, i32 noundef %1) #0 comdat align 2 {
  %3 = alloca ptr, align 8
  %4 = alloca i32, align 4
  store ptr %0, ptr %3, align 8
  store i32 %1, ptr %4, align 4
  %5 = load ptr, ptr %3, align 8
  %6 = load i32, ptr %4, align 4
  %7 = getelementptr inbounds nuw %"class.clang::TargetCXXABI", ptr %5, i32 0, i32 0
  store i32 %6, ptr %7, align 4
  ret void
}

; Function Attrs: mustprogress nounwind uwtable
define linkonce_odr hidden noundef nonnull align 8 dereferenceable(56) ptr @_ZNK5clang10TargetInfo9getTripleEv(ptr noundef nonnull align 8 dereferenceable(489) %0) #0 comdat align 2 {
  %2 = alloca ptr, align 8
  store ptr %0, ptr %2, align 8
  %3 = load ptr, ptr %2, align 8
  %4 = getelementptr inbounds nuw %"class.clang::TargetInfo", ptr %3, i32 0, i32 4
  ret ptr %4
}

; Function Attrs: mustprogress nounwind uwtable
define hidden void @_ZN5clang7targets23DarwinAArch64TargetInfoC2ERKN4llvm6TripleERKNS_13TargetOptionsE(ptr noundef nonnull align 8 dereferenceable(600) %0, ptr noundef nonnull align 8 dereferenceable(56) %1, ptr noundef nonnull align 8 dereferenceable(536) %2) unnamed_addr #0 align 2 {
  %4 = alloca ptr, align 8
  %5 = alloca ptr, align 8
  %6 = alloca ptr, align 8
  store ptr %0, ptr %4, align 8
  store ptr %1, ptr %5, align 8
  store ptr %2, ptr %6, align 8
  %7 = load ptr, ptr %4, align 8
  %8 = load ptr, ptr %5, align 8
  %9 = load ptr, ptr %6, align 8
  call void @_ZN5clang7targets16DarwinTargetInfoINS0_19AArch64leTargetInfoEEC2ERKN4llvm6TripleERKNS_13TargetOptionsE(ptr noundef nonnull align 8 dereferenceable(600) %7, ptr noundef nonnull align 8 dereferenceable(56) %8, ptr noundef nonnull align 8 dereferenceable(536) %9)
  store ptr getelementptr inbounds inrange(-16, 984) ({ [125 x ptr] }, ptr @_ZTVN5clang7targets23DarwinAArch64TargetInfoE, i32 0, i32 0, i32 2), ptr %7, align 8
  %10 = getelementptr inbounds i8, ptr %7, i64 8
  %11 = getelementptr inbounds nuw %"struct.clang::TransferrableTargetInfo", ptr %10, i32 0, i32 66
  store i32 9, ptr %11, align 8
  %12 = call noundef nonnull align 8 dereferenceable(56) ptr @_ZNK5clang10TargetInfo9getTripleEv(ptr noundef nonnull align 8 dereferenceable(489) %7)
  %13 = call noundef zeroext i1 @_ZNK4llvm6Triple11isArch32BitEv(ptr noundef nonnull align 8 dereferenceable(56) %12)
  br i1 %13, label %14, label %17

14:                                               ; preds = %3
  %15 = getelementptr inbounds i8, ptr %7, i64 8
  %16 = getelementptr inbounds nuw %"struct.clang::TransferrableTargetInfo", ptr %15, i32 0, i32 59
  store i32 9, ptr %16, align 4
  br label %17

17:                                               ; preds = %14, %3
  %18 = getelementptr inbounds i8, ptr %7, i64 8
  %19 = getelementptr inbounds nuw %"struct.clang::TransferrableTargetInfo", ptr %18, i32 0, i32 62
  store i32 5, ptr %19, align 8
  %20 = getelementptr inbounds i8, ptr %7, i64 8
  %21 = getelementptr inbounds nuw %"struct.clang::TransferrableTargetInfo", ptr %20, i32 0, i32 70
  %22 = load i8, ptr %21, align 8
  %23 = and i8 %22, -2
  %24 = or i8 %23, 0
  store i8 %24, ptr %21, align 8
  %25 = getelementptr inbounds i8, ptr %7, i64 8
  %26 = getelementptr inbounds nuw %"struct.clang::TransferrableTargetInfo", ptr %25, i32 0, i32 45
  store i16 64, ptr %26, align 2
  %27 = getelementptr inbounds i8, ptr %7, i64 8
  %28 = getelementptr inbounds nuw %"struct.clang::TransferrableTargetInfo", ptr %27, i32 0, i32 15
  store i8 64, ptr %28, align 1
  %29 = getelementptr inbounds i8, ptr %7, i64 8
  %30 = getelementptr inbounds nuw %"struct.clang::TransferrableTargetInfo", ptr %29, i32 0, i32 14
  store i8 64, ptr %30, align 2
  %31 = call noundef nonnull align 1 ptr @_ZN4llvm11APFloatBase10IEEEdoubleEv() #12
  %32 = getelementptr inbounds i8, ptr %7, i64 8
  %33 = getelementptr inbounds nuw %"struct.clang::TransferrableTargetInfo", ptr %32, i32 0, i32 55
  store ptr %31, ptr %33, align 8
  %34 = getelementptr inbounds i8, ptr %7, i64 8
  %35 = getelementptr inbounds nuw %"struct.clang::TransferrableTargetInfo", ptr %34, i32 0, i32 70
  %36 = load i8, ptr %35, align 8
  %37 = and i8 %36, -5
  %38 = or i8 %37, 0
  store i8 %38, ptr %35, align 8
  %39 = call noundef nonnull align 8 dereferenceable(56) ptr @_ZNK5clang10TargetInfo9getTripleEv(ptr noundef nonnull align 8 dereferenceable(489) %7)
  %40 = call noundef zeroext i1 @_ZNK4llvm6Triple11isArch32BitEv(ptr noundef nonnull align 8 dereferenceable(56) %39)
  br i1 %40, label %41, label %55

41:                                               ; preds = %17
  %42 = getelementptr inbounds i8, ptr %7, i64 8
  %43 = getelementptr inbounds nuw %"struct.clang::TransferrableTargetInfo", ptr %42, i32 0, i32 70
  %44 = load i8, ptr %43, align 8
  %45 = and i8 %44, -3
  %46 = or i8 %45, 0
  store i8 %46, ptr %43, align 8
  %47 = getelementptr inbounds i8, ptr %7, i64 8
  %48 = getelementptr inbounds nuw %"struct.clang::TransferrableTargetInfo", ptr %47, i32 0, i32 72
  store i32 32, ptr %48, align 4
  %49 = getelementptr inbounds i8, ptr %7, i64 8
  %50 = getelementptr inbounds nuw %"struct.clang::TransferrableTargetInfo", ptr %49, i32 0, i32 70
  %51 = load i8, ptr %50, align 8
  %52 = and i8 %51, -5
  %53 = or i8 %52, 4
  store i8 %53, ptr %50, align 8
  %54 = getelementptr inbounds nuw %"class.clang::TargetInfo", ptr %7, i32 0, i32 27
  call void @_ZN5clang12TargetCXXABI3setENS0_4KindE(ptr noundef nonnull align 4 dereferenceable(4) %54, i32 noundef 4)
  br label %57

55:                                               ; preds = %17
  %56 = getelementptr inbounds nuw %"class.clang::TargetInfo", ptr %7, i32 0, i32 27
  call void @_ZN5clang12TargetCXXABI3setENS0_4KindE(ptr noundef nonnull align 4 dereferenceable(4) %56, i32 noundef 3)
  br label %57

57:                                               ; preds = %55, %41
  ret void
}