; Function Attrs: mustprogress nounwind uwtable
define hidden void @_ZN5clang7targets23DarwinAArch64TargetInfoC2ERKN4llvm6TripleERKNS_13TargetOptionsE(ptr noundef nonnull align 8 dereferenceable(600) %0, ptr noundef nonnull align 8 dereferenceable(56) %1, ptr noundef nonnull align 8 dereferenceable(536) %2) unnamed_addr #1 align 2 {
  tail call void @_ZN5clang7targets16DarwinTargetInfoINS0_19AArch64leTargetInfoEEC2ERKN4llvm6TripleERKNS_13TargetOptionsE(ptr noundef nonnull align 8 dereferenceable(600) %0, ptr noundef nonnull align 8 dereferenceable(56) %1, ptr noundef nonnull align 8 dereferenceable(536) %2)
  store ptr getelementptr inbounds nuw inrange(-16, 984) (i8, ptr @_ZTVN5clang7targets23DarwinAArch64TargetInfoE, i64 16), ptr %0, align 8
  %4 = getelementptr inbounds nuw i8, ptr %0, i64 168
  store i32 9, ptr %4, align 8
  %5 = getelementptr inbounds nuw i8, ptr %0, i64 216
  %6 = tail call noundef zeroext i1 @_ZNK4llvm6Triple11isArch32BitEv(ptr noundef nonnull align 8 dereferenceable(56) %5) #23
  br i1 %6, label %7, label %9

7:                                                ; preds = %3
  %8 = getelementptr inbounds nuw i8, ptr %0, i64 140
  store i32 9, ptr %8, align 4
  br label %9

9:                                                ; preds = %7, %3
  %10 = getelementptr inbounds nuw i8, ptr %0, i64 152
  store i32 5, ptr %10, align 8
  %11 = getelementptr inbounds nuw i8, ptr %0, i64 184
  %12 = load i8, ptr %11, align 8
  %13 = getelementptr inbounds nuw i8, ptr %0, i64 62
  store i16 64, ptr %13, align 2
  %14 = getelementptr inbounds nuw i8, ptr %0, i64 23
  store i8 64, ptr %14, align 1
  %15 = getelementptr inbounds nuw i8, ptr %0, i64 22
  store i8 64, ptr %15, align 2
  %16 = tail call noundef nonnull align 1 ptr @_ZN4llvm11APFloatBase10IEEEdoubleEv() #24
  %17 = getelementptr inbounds nuw i8, ptr %0, i64 112
  store ptr %16, ptr %17, align 8
  %18 = and i8 %12, -6
  store i8 %18, ptr %11, align 8
  %19 = tail call noundef zeroext i1 @_ZNK4llvm6Triple11isArch32BitEv(ptr noundef nonnull align 8 dereferenceable(56) %5) #23
  br i1 %19, label %20, label %25

20:                                               ; preds = %9
  %21 = load i8, ptr %11, align 8
  %22 = getelementptr inbounds nuw i8, ptr %0, i64 188
  store i32 32, ptr %22, align 4
  %23 = and i8 %21, -7
  %24 = or disjoint i8 %23, 4
  store i8 %24, ptr %11, align 8
  br label %25

25:                                               ; preds = %9, %20
  %.sink = phi i32 [ 4, %20 ], [ 3, %9 ]
  %26 = getelementptr inbounds nuw i8, ptr %0, i64 340
  store i32 %.sink, ptr %26, align 4
  ret void
}